; Function Attrs: mustprogress uwtable
define void @_ZN7mitsuba14StreamAppender12log_progressEfRKNSt3__112basic_stringIcNS1_11char_traitsIcEENS1_9allocatorIcEEEES9_S9_PKv(ptr nocapture noundef nonnull align 8 dereferenceable(50) %0, float %1, ptr nocapture nonnull readnone align 8 %2, ptr noundef nonnull align 8 dereferenceable(24) %3, ptr nocapture nonnull readnone align 8 %4, ptr nocapture readnone %5) unnamed_addr #1 align 2 {
  %7 = getelementptr inbounds i8, ptr %0, i64 48
  %8 = load i8, ptr %7, align 8
  %9 = and i8 %8, 1
  %.not = icmp eq i8 %9, 0
  br i1 %.not, label %10, label %27

10:                                               ; preds = %6
  %11 = getelementptr inbounds i8, ptr %0, i64 16
  %12 = load ptr, ptr %11, align 8
  %13 = load i8, ptr %3, align 8
  %14 = and i8 %13, 1
  %.not.i.i.i = icmp eq i8 %14, 0
  %15 = getelementptr inbounds i8, ptr %3, i64 16
  %16 = load ptr, ptr %15, align 8
  %17 = getelementptr inbounds i8, ptr %3, i64 1
  %18 = select i1 %.not.i.i.i, ptr %17, ptr %16
  %19 = getelementptr inbounds i8, ptr %3, i64 8
  %20 = load i64, ptr %19, align 8
  %21 = lshr i8 %13, 1
  %22 = zext nneg i8 %21 to i64
  %23 = select i1 %.not.i.i.i, i64 %22, i64 %20
  %24 = tail call noundef nonnull align 8 dereferenceable(8) ptr @_ZNSt3__124__put_character_sequenceB8ne190000IcNS_11char_traitsIcEEEERNS_13basic_ostreamIT_T0_EES7_PKS4_m(ptr noundef nonnull align 8 dereferenceable(8) %12, ptr noundef %18, i64 noundef %23)
  %25 = load ptr, ptr %11, align 8
  %26 = tail call noundef nonnull align 8 dereferenceable(8) ptr @_ZNSt3__113basic_ostreamIcNS_11char_traitsIcEEE5flushEv(ptr noundef nonnull align 8 dereferenceable(8) %25)
  br label %27

27:                                               ; preds = %10, %6
  %28 = getelementptr inbounds i8, ptr %0, i64 49
  store i8 1, ptr %28, align 1
  ret void
}